target datalayout = "e-m:e-p270:32:32-p271:32:32-p272:64:64-i64:64-i128:128-f80:128-n8:16:32:64-S128"
target triple = "x86_64-pc-linux-gnu"

%struct.stats = type { i64, i64, i64, i64, i64, i64, i64, i64, i64, i64, i64, i64, i64, i64, i64, i64, i64, i64, i64, i64, i64, i64, i64, i64, %struct.timeval, i64, i64 }
%struct.timeval = type { i64, i64 }
%struct.settings = type { i64, i32, i32, i32, ptr, i32, i32, i32, ptr, ptr, i32, double, i32, i32, i32, i8, i32, i32, i8, i32, i32, i32, i32, i32, i32, i8, i8, i8, i8, i8, i8, i8, i32, i32, double, double, i32, i32, i8, i32, i8, i8, ptr, i32, i32, i32, i32, double, double, i32, i8, i32, i32, i32, i32, i32, i8, i8, i8, ptr, i32, i32, i32, i32, i32, i32, i32, i32, i32, i32, double, i8, i32, i32, ptr, i32 }
%struct.stats_state = type { i64, i64, i64, i64, float, i32, i32, i32, i32, i8, i8, i8, i8 }
%struct.event = type { %struct.event_callback, %union.anon.1, i32, ptr, %union.anon.3, i16, i16, %struct.timeval }
%struct.event_callback = type { %struct.anon.0, i16, i8, i8, %union.anon, ptr }
%struct.anon.0 = type { ptr, ptr }
%union.anon = type { ptr }
%union.anon.1 = type { %struct.anon.2 }
%struct.anon.2 = type { ptr, ptr }
%union.anon.3 = type { %struct.anon.4 }
%struct.anon.4 = type { %struct.anon.5, %struct.timeval }
%struct.anon.5 = type { ptr, ptr }
%struct.conn = type { ptr, i32, i8, i8, i8, i8, i8, i8, i8, i8, ptr, i32, i32, i32, %struct.event, i16, i16, ptr, ptr, i32, i32, ptr, ptr, ptr, i32, ptr, i32, i32, i32, i32, i32, i32, i32, %struct.sockaddr_in6, i32, i8, %struct.anon.9, %union.protocol_binary_request_header, i64, i64, i16, i32, i32, ptr, ptr, ptr, ptr, ptr, ptr }
%struct.sockaddr_in6 = type { i16, i16, i32, %struct.in6_addr, i32 }
%struct.in6_addr = type { %union.anon.8 }
%union.anon.8 = type { [4 x i32] }
%struct.anon.9 = type { ptr, i64, i64 }
%union.protocol_binary_request_header = type { %struct.anon.10 }
%struct.anon.10 = type { i8, i8, i16, i8, i8, i16, i32, i32, i64 }

@stats = dso_local global %struct.stats zeroinitializer, align 8
@settings = dso_local global %struct.settings zeroinitializer, align 8
@stats_state = dso_local global %struct.stats_state zeroinitializer, align 8
@listen_conn = internal global ptr null, align 8
@.str.202 = private unnamed_addr constant [7 x i8] c"listen\00", align 1
@allow_new_conns = internal global i8 1, align 1
@main_base = internal global ptr null, align 8
@__const.maxconns_handler.t = private unnamed_addr constant %struct.timeval { i64 0, i64 10000 }, align 8
@maxconnsevent = internal global %struct.event zeroinitializer, align 8

; Function Attrs: nounwind uwtable
define internal void @maxconns_handler(i32 noundef %0, i16 noundef signext %1, ptr noundef %2) #0 {
  %4 = alloca i32, align 4
  %5 = alloca i16, align 2
  %6 = alloca ptr, align 8
  %7 = alloca %struct.timeval, align 8
  store i32 %0, ptr %4, align 4, !tbaa !8
  store i16 %1, ptr %5, align 2, !tbaa !79
  store ptr %2, ptr %6, align 8, !tbaa !68
  call void @llvm.lifetime.start.p0(i64 16, ptr %7) #15
  call void @llvm.memcpy.p0.p0.i64(ptr align 8 %7, ptr align 8 @__const.maxconns_handler.t, i64 16, i1 false)
  %8 = load i32, ptr %4, align 4, !tbaa !8
  %9 = icmp eq i32 %8, -42
  br i1 %9, label %15, label %10

10:                                               ; preds = %3
  %11 = load volatile i8, ptr @allow_new_conns, align 1, !tbaa !57, !range !59, !noundef !60
  %12 = trunc i8 %11 to i1
  %13 = zext i1 %12 to i32
  %14 = icmp eq i32 %13, 0
  br i1 %14, label %15, label %19

15:                                               ; preds = %10, %3
  call void @event_set(ptr noundef @maxconnsevent, i32 noundef -1, i16 noundef signext 0, ptr noundef @maxconns_handler, ptr noundef null)
  %16 = load ptr, ptr @main_base, align 8, !tbaa !106
  %17 = call i32 @event_base_set(ptr noundef %16, ptr noundef @maxconnsevent)
  %18 = call i32 @event_add(ptr noundef @maxconnsevent, ptr noundef %7)
  br label %21

19:                                               ; preds = %10
  %20 = call i32 @event_del(ptr noundef @maxconnsevent)
  call void @accept_new_conns(i1 noundef zeroext true)
  br label %21

21:                                               ; preds = %19, %15
  call void @llvm.lifetime.end.p0(i64 16, ptr %7) #15
  ret void
}

; Function Attrs: nounwind uwtable
define internal zeroext i1 @update_event(ptr noundef %0, i32 noundef %1) #0 {
  %3 = alloca i1, align 1
  %4 = alloca ptr, align 8
  %5 = alloca i32, align 4
  %6 = alloca ptr, align 8
  %7 = alloca i32, align 4
  store ptr %0, ptr %4, align 8, !tbaa !10
  store i32 %1, ptr %5, align 4, !tbaa !8
  call void @llvm.lifetime.start.p0(i64 8, ptr %6) #15
  %8 = load ptr, ptr %4, align 8, !tbaa !10
  %9 = getelementptr inbounds nuw %struct.conn, ptr %8, i32 0, i32 14
  %10 = getelementptr inbounds nuw %struct.event, ptr %9, i32 0, i32 3
  %11 = load ptr, ptr %10, align 8, !tbaa !340
  store ptr %11, ptr %6, align 8, !tbaa !106
  %12 = load ptr, ptr %4, align 8, !tbaa !10
  %13 = getelementptr inbounds nuw %struct.conn, ptr %12, i32 0, i32 15
  %14 = load i16, ptr %13, align 8, !tbaa !89
  %15 = sext i16 %14 to i32
  %16 = load i32, ptr %5, align 4, !tbaa !8
  %17 = icmp eq i32 %15, %16
  br i1 %17, label %18, label %19

18:                                               ; preds = %2
  store i1 true, ptr %3, align 1
  store i32 1, ptr %7, align 4
  br label %48

19:                                               ; preds = %2
  %20 = load ptr, ptr %4, align 8, !tbaa !10
  %21 = getelementptr inbounds nuw %struct.conn, ptr %20, i32 0, i32 14
  %22 = call i32 @event_del(ptr noundef %21)
  %23 = icmp eq i32 %22, -1
  br i1 %23, label %24, label %25

24:                                               ; preds = %19
  store i1 false, ptr %3, align 1
  store i32 1, ptr %7, align 4
  br label %48

25:                                               ; preds = %19
  %26 = load ptr, ptr %4, align 8, !tbaa !10
  %27 = getelementptr inbounds nuw %struct.conn, ptr %26, i32 0, i32 14
  %28 = load ptr, ptr %4, align 8, !tbaa !10
  %29 = getelementptr inbounds nuw %struct.conn, ptr %28, i32 0, i32 1
  %30 = load i32, ptr %29, align 8, !tbaa !54
  %31 = load i32, ptr %5, align 4, !tbaa !8
  %32 = trunc i32 %31 to i16
  %33 = load ptr, ptr %4, align 8, !tbaa !10
  call void @event_set(ptr noundef %27, i32 noundef %30, i16 noundef signext %32, ptr noundef @event_handler, ptr noundef %33)
  %34 = load ptr, ptr %6, align 8, !tbaa !106
  %35 = load ptr, ptr %4, align 8, !tbaa !10
  %36 = getelementptr inbounds nuw %struct.conn, ptr %35, i32 0, i32 14
  %37 = call i32 @event_base_set(ptr noundef %34, ptr noundef %36)
  %38 = load i32, ptr %5, align 4, !tbaa !8
  %39 = trunc i32 %38 to i16
  %40 = load ptr, ptr %4, align 8, !tbaa !10
  %41 = getelementptr inbounds nuw %struct.conn, ptr %40, i32 0, i32 15
  store i16 %39, ptr %41, align 8, !tbaa !89
  %42 = load ptr, ptr %4, align 8, !tbaa !10
  %43 = getelementptr inbounds nuw %struct.conn, ptr %42, i32 0, i32 14
  %44 = call i32 @event_add(ptr noundef %43, ptr noundef null)
  %45 = icmp eq i32 %44, -1
  br i1 %45, label %46, label %47

46:                                               ; preds = %25
  store i1 false, ptr %3, align 1
  store i32 1, ptr %7, align 4
  br label %48

47:                                               ; preds = %25
  store i1 true, ptr %3, align 1
  store i32 1, ptr %7, align 4
  br label %48

48:                                               ; preds = %47, %46, %24, %18
  call void @llvm.lifetime.end.p0(i64 8, ptr %6) #15
  %49 = load i1, ptr %3, align 1
  ret i1 %49
}

; Function Attrs: nounwind uwtable
define dso_local void @do_accept_new_conns(i1 noundef zeroext %0) #0 {
  %2 = alloca i8, align 1
  %3 = alloca ptr, align 8
  %4 = alloca %struct.timeval, align 8
  %5 = alloca i64, align 8
  %6 = zext i1 %0 to i8
  store i8 %6, ptr %2, align 1, !tbaa !57
  call void @llvm.lifetime.start.p0(i64 8, ptr %3) #15
  %7 = load ptr, ptr @listen_conn, align 8, !tbaa !10
  store ptr %7, ptr %3, align 8, !tbaa !10
  br label %8

8:                                                ; preds = %36, %1
  %9 = load ptr, ptr %3, align 8, !tbaa !10
  %10 = icmp ne ptr %9, null
  br i1 %10, label %11, label %40

11:                                               ; preds = %8
  %12 = load i8, ptr %2, align 1, !tbaa !57, !range !59, !noundef !60
  %13 = trunc i8 %12 to i1
  br i1 %13, label %14, label %25

14:                                               ; preds = %11
  %15 = load ptr, ptr %3, align 8, !tbaa !10
  %16 = call zeroext i1 @update_event(ptr noundef %15, i32 noundef 18)
  %17 = load ptr, ptr %3, align 8, !tbaa !10
  %18 = getelementptr inbounds nuw %struct.conn, ptr %17, i32 0, i32 1
  %19 = load i32, ptr %18, align 8, !tbaa !54
  %20 = load i32, ptr getelementptr inbounds nuw (%struct.settings, ptr @settings, i32 0, i32 20), align 8, !tbaa !282
  %21 = call i32 @listen(i32 noundef %19, i32 noundef %20) #15
  %22 = icmp ne i32 %21, 0
  br i1 %22, label %23, label %24

23:                                               ; preds = %14
  call void @perror(ptr noundef @.str.202)
  br label %24

24:                                               ; preds = %23, %14
  br label %35

25:                                               ; preds = %11
  %26 = load ptr, ptr %3, align 8, !tbaa !10
  %27 = call zeroext i1 @update_event(ptr noundef %26, i32 noundef 0)
  %28 = load ptr, ptr %3, align 8, !tbaa !10
  %29 = getelementptr inbounds nuw %struct.conn, ptr %28, i32 0, i32 1
  %30 = load i32, ptr %29, align 8, !tbaa !54
  %31 = call i32 @listen(i32 noundef %30, i32 noundef 0) #15
  %32 = icmp ne i32 %31, 0
  br i1 %32, label %33, label %34

33:                                               ; preds = %25
  call void @perror(ptr noundef @.str.202)
  br label %34

34:                                               ; preds = %33, %25
  br label %35

35:                                               ; preds = %34, %24
  br label %36

36:                                               ; preds = %35
  %37 = load ptr, ptr %3, align 8, !tbaa !10
  %38 = getelementptr inbounds nuw %struct.conn, ptr %37, i32 0, i32 43
  %39 = load ptr, ptr %38, align 8, !tbaa !334
  store ptr %39, ptr %3, align 8, !tbaa !10
  br label %8, !llvm.loop !335

40:                                               ; preds = %8
  %41 = load i8, ptr %2, align 1, !tbaa !57, !range !59, !noundef !60
  %42 = trunc i8 %41 to i1
  br i1 %42, label %43, label %58

43:                                               ; preds = %40
  call void @llvm.lifetime.start.p0(i64 16, ptr %4) #15
  call void @llvm.lifetime.start.p0(i64 8, ptr %5) #15
  %44 = call i32 @gettimeofday(ptr noundef %4, ptr noundef null) #15
  call void @STATS_LOCK()
  %45 = getelementptr inbounds nuw %struct.timeval, ptr %4, i32 0, i32 0
  %46 = load i64, ptr %45, align 8, !tbaa !336
  %47 = load i64, ptr getelementptr inbounds nuw (%struct.stats, ptr @stats, i32 0, i32 24), align 8, !tbaa !337
  %48 = sub nsw i64 %46, %47
  %49 = mul nsw i64 %48, 1000000
  %50 = getelementptr inbounds nuw %struct.timeval, ptr %4, i32 0, i32 1
  %51 = load i64, ptr %50, align 8, !tbaa !338
  %52 = load i64, ptr getelementptr inbounds nuw (%struct.timeval, ptr getelementptr inbounds nuw (%struct.stats, ptr @stats, i32 0, i32 24), i32 0, i32 1), align 8, !tbaa !339
  %53 = sub nsw i64 %51, %52
  %54 = add nsw i64 %49, %53
  store i64 %54, ptr %5, align 8, !tbaa !4
  %55 = load i64, ptr %5, align 8, !tbaa !4
  %56 = load i64, ptr getelementptr inbounds nuw (%struct.stats, ptr @stats, i32 0, i32 14), align 8, !tbaa !242
  %57 = add i64 %56, %55
  store i64 %57, ptr getelementptr inbounds nuw (%struct.stats, ptr @stats, i32 0, i32 14), align 8, !tbaa !242
  store i8 1, ptr getelementptr inbounds nuw (%struct.stats_state, ptr @stats_state, i32 0, i32 10), align 1, !tbaa !240
  call void @STATS_UNLOCK()
  call void @llvm.lifetime.end.p0(i64 8, ptr %5) #15
  call void @llvm.lifetime.end.p0(i64 16, ptr %4) #15
  br label %62

58:                                               ; preds = %40
  call void @STATS_LOCK()
  store i8 0, ptr getelementptr inbounds nuw (%struct.stats_state, ptr @stats_state, i32 0, i32 10), align 1, !tbaa !240
  %59 = call i32 @gettimeofday(ptr noundef getelementptr inbounds nuw (%struct.stats, ptr @stats, i32 0, i32 24), ptr noundef null) #15
  %60 = load i64, ptr getelementptr inbounds nuw (%struct.stats, ptr @stats, i32 0, i32 4), align 8, !tbaa !241
  %61 = add i64 %60, 1
  store i64 %61, ptr getelementptr inbounds nuw (%struct.stats, ptr @stats, i32 0, i32 4), align 8, !tbaa !241
  call void @STATS_UNLOCK()
  store volatile i8 0, ptr @allow_new_conns, align 1, !tbaa !57
  call void @maxconns_handler(i32 noundef -42, i16 noundef signext 0, ptr noundef null)
  br label %62

62:                                               ; preds = %58, %43
  call void @llvm.lifetime.end.p0(i64 8, ptr %3) #15
  ret void
}