; Function Attrs: nounwind uwtable
define dso_local void @do_accept_new_conns(i1 noundef zeroext %0) local_unnamed_addr #1 {
  %2 = alloca %struct.timeval, align 8
  %3 = alloca %struct.timeval, align 8
  %.012 = load ptr, ptr @listen_conn, align 8, !tbaa !139
  %.not13 = icmp eq ptr %.012, null
  br i1 %.not13, label %._crit_edge, label %.lr.ph

.lr.ph:                                           ; preds = %1
  br i1 %0, label %.lr.ph.split.us, label %.lr.ph.split

.lr.ph.split.us:                                  ; preds = %.lr.ph, %23
  %.014.us = phi ptr [ %.0.us, %23 ], [ %.012, %.lr.ph ]
  %4 = getelementptr inbounds nuw i8, ptr %.014.us, i64 48
  %5 = getelementptr inbounds nuw i8, ptr %.014.us, i64 112
  %6 = load ptr, ptr %5, align 8, !tbaa !68
  %7 = getelementptr inbounds nuw i8, ptr %.014.us, i64 176
  %8 = load i16, ptr %7, align 8, !tbaa !69
  %9 = icmp eq i16 %8, 18
  br i1 %9, label %update_event.exit.us, label %10

10:                                               ; preds = %.lr.ph.split.us
  %11 = tail call i32 @event_del(ptr noundef nonnull %4) #34
  %12 = icmp eq i32 %11, -1
  br i1 %12, label %update_event.exit.us, label %13

13:                                               ; preds = %10
  %14 = getelementptr inbounds nuw i8, ptr %.014.us, i64 8
  %15 = load i32, ptr %14, align 8, !tbaa !52
  tail call void @event_set(ptr noundef nonnull %4, i32 noundef %15, i16 noundef signext 18, ptr noundef nonnull @event_handler, ptr noundef nonnull %.014.us) #34
  %16 = tail call i32 @event_base_set(ptr noundef %6, ptr noundef nonnull %4) #34
  store i16 18, ptr %7, align 8, !tbaa !69
  %17 = tail call i32 @event_add(ptr noundef nonnull %4, ptr noundef null) #34
  br label %update_event.exit.us

update_event.exit.us:                             ; preds = %13, %10, %.lr.ph.split.us
  %18 = getelementptr inbounds nuw i8, ptr %.014.us, i64 8
  %19 = load i32, ptr %18, align 8, !tbaa !52
  %20 = load i32, ptr getelementptr inbounds nuw (i8, ptr @settings, i64 112), align 8, !tbaa !273
  %21 = tail call i32 @listen(i32 noundef %19, i32 noundef %20) #34
  %.not9.us = icmp eq i32 %21, 0
  br i1 %.not9.us, label %23, label %22

22:                                               ; preds = %update_event.exit.us
  tail call void @perror(ptr noundef nonnull @.str.202) #38
  br label %23

23:                                               ; preds = %22, %update_event.exit.us
  %24 = getelementptr inbounds nuw i8, ptr %.014.us, i64 392
  %.0.us = load ptr, ptr %24, align 8, !tbaa !139
  %.not.us = icmp eq ptr %.0.us, null
  br i1 %.not.us, label %._crit_edge, label %.lr.ph.split.us, !llvm.loop !320

.lr.ph.split:                                     ; preds = %.lr.ph, %43
  %.014 = phi ptr [ %.0, %43 ], [ %.012, %.lr.ph ]
  %25 = getelementptr inbounds nuw i8, ptr %.014, i64 48
  %26 = getelementptr inbounds nuw i8, ptr %.014, i64 112
  %27 = load ptr, ptr %26, align 8, !tbaa !68
  %28 = getelementptr inbounds nuw i8, ptr %.014, i64 176
  %29 = load i16, ptr %28, align 8, !tbaa !69
  %30 = icmp eq i16 %29, 0
  br i1 %30, label %update_event.exit11, label %31

31:                                               ; preds = %.lr.ph.split
  %32 = tail call i32 @event_del(ptr noundef nonnull %25) #34
  %33 = icmp eq i32 %32, -1
  br i1 %33, label %update_event.exit11, label %34

34:                                               ; preds = %31
  %35 = getelementptr inbounds nuw i8, ptr %.014, i64 8
  %36 = load i32, ptr %35, align 8, !tbaa !52
  tail call void @event_set(ptr noundef nonnull %25, i32 noundef %36, i16 noundef signext 0, ptr noundef nonnull @event_handler, ptr noundef nonnull %.014) #34
  %37 = tail call i32 @event_base_set(ptr noundef %27, ptr noundef nonnull %25) #34
  store i16 0, ptr %28, align 8, !tbaa !69
  %38 = tail call i32 @event_add(ptr noundef nonnull %25, ptr noundef null) #34
  br label %update_event.exit11

update_event.exit11:                              ; preds = %.lr.ph.split, %31, %34
  %39 = getelementptr inbounds nuw i8, ptr %.014, i64 8
  %40 = load i32, ptr %39, align 8, !tbaa !52
  %41 = tail call i32 @listen(i32 noundef %40, i32 noundef 0) #34
  %.not8 = icmp eq i32 %41, 0
  br i1 %.not8, label %43, label %42

42:                                               ; preds = %update_event.exit11
  tail call void @perror(ptr noundef nonnull @.str.202) #38
  br label %43

43:                                               ; preds = %42, %update_event.exit11
  %44 = getelementptr inbounds nuw i8, ptr %.014, i64 392
  %.0 = load ptr, ptr %44, align 8, !tbaa !139
  %.not = icmp eq ptr %.0, null
  br i1 %.not, label %._crit_edge, label %.lr.ph.split, !llvm.loop !320

._crit_edge:                                      ; preds = %43, %23, %1
  br i1 %0, label %45, label %58

45:                                               ; preds = %._crit_edge
  call void @llvm.lifetime.start.p0(i64 16, ptr nonnull %3) #34
  %46 = call i32 @gettimeofday(ptr noundef nonnull %3, ptr noundef null) #34
  tail call void @STATS_LOCK() #34
  %47 = load i64, ptr %3, align 8, !tbaa !321
  %48 = load i64, ptr getelementptr inbounds nuw (i8, ptr @stats, i64 192), align 8, !tbaa !322
  %49 = sub nsw i64 %47, %48
  %50 = mul nsw i64 %49, 1000000
  %51 = getelementptr inbounds nuw i8, ptr %3, i64 8
  %52 = load i64, ptr %51, align 8, !tbaa !323
  %53 = load i64, ptr getelementptr inbounds nuw (i8, ptr @stats, i64 200), align 8, !tbaa !324
  %54 = sub i64 %52, %53
  %55 = add nsw i64 %54, %50
  %56 = load i64, ptr getelementptr inbounds nuw (i8, ptr @stats, i64 112), align 8, !tbaa !233
  %57 = add i64 %55, %56
  store i64 %57, ptr getelementptr inbounds nuw (i8, ptr @stats, i64 112), align 8, !tbaa !233
  store i8 1, ptr getelementptr inbounds nuw (i8, ptr @stats_state, i64 53), align 1, !tbaa !231
  tail call void @STATS_UNLOCK() #34
  call void @llvm.lifetime.end.p0(i64 16, ptr nonnull %3) #34
  br label %65

58:                                               ; preds = %._crit_edge
  tail call void @STATS_LOCK() #34
  store i8 0, ptr getelementptr inbounds nuw (i8, ptr @stats_state, i64 53), align 1, !tbaa !231
  %59 = tail call i32 @gettimeofday(ptr noundef nonnull getelementptr inbounds nuw (i8, ptr @stats, i64 192), ptr noundef null) #34
  %60 = load i64, ptr getelementptr inbounds nuw (i8, ptr @stats, i64 32), align 8, !tbaa !232
  %61 = add i64 %60, 1
  store i64 %61, ptr getelementptr inbounds nuw (i8, ptr @stats, i64 32), align 8, !tbaa !232
  tail call void @STATS_UNLOCK() #34
  store volatile i8 0, ptr @allow_new_conns, align 1, !tbaa !160
  call void @llvm.lifetime.start.p0(i64 16, ptr nonnull %2) #34
  call void @llvm.memcpy.p0.p0.i64(ptr noundef nonnull align 8 dereferenceable(16) %2, ptr noundef nonnull align 8 dereferenceable(16) @__const.maxconns_handler.t, i64 16, i1 false)
  tail call void @event_set(ptr noundef nonnull @maxconnsevent, i32 noundef -1, i16 noundef signext 0, ptr noundef nonnull @maxconns_handler, ptr noundef null) #34
  %62 = load ptr, ptr @main_base, align 8, !tbaa !325
  %63 = tail call i32 @event_base_set(ptr noundef %62, ptr noundef nonnull @maxconnsevent) #34
  %64 = call i32 @event_add(ptr noundef nonnull @maxconnsevent, ptr noundef nonnull %2) #34
  call void @llvm.lifetime.end.p0(i64 16, ptr nonnull %2) #34
  br label %65

65:                                               ; preds = %58, %45
  ret void
}